ccollections
OrderedDict
p0
((lp1
(lp2
S'METTS MARK'
p3
ag0
((lp4
(lp5
S'poi'
p6
aI00
aa(lp7
S'salary'
p8
acnumpy.core.multiarray
scalar
p9
(cnumpy
dtype
p10
(S'f8'
p11
I0
I1
tp12
Rp13
(I3
S'<'
p14
NNNI-1
I-1
I0
tp15
bS'\xa78A\xf2\x0c\x11\xd5?'
p16
tp17
Rp18
aa(lp19
S'deferred_income'
p20
aS'NaN'
p21
aa(lp22
S'total_stock_value'
p23
aI585062
aa(lp24
S'expenses'
p25
aI94299
aa(lp26
S'exercised_stock_options'
p27
ag9
(g13
S'\x00\x00\x00\x00\x00\x00\x00\x00'
p28
tp29
Rp30
aatp31
Rp32
aa(lp33
S'BAXTER JOHN C'
p34
ag0
((lp35
(lp36
g6
aI00
aa(lp37
g8
ag9
(g13
S'1\xc9\n\x06\x1e\xc4\xce?'
p38
tp39
Rp40
aa(lp41
g20
aI-1386055
aa(lp42
g23
aI10623258
aa(lp43
g25
aI11200
aa(lp44
g27
ag9
(g13
S'#%\x0fV+\xe5\xc8?'
p45
tp46
Rp47
aatp48
Rp49
aa(lp50
S'ELLIOTT STEVEN'
p51
ag0
((lp52
(lp53
g6
aI00
aa(lp54
g8
ag9
(g13
S'\xcb\xe7\x17\xbf\x96\xb0\xc3?'
p55
tp56
Rp57
aa(lp58
g20
aI-400729
aa(lp59
g23
aI6678735
aa(lp60
g25
aI78552
aa(lp61
g27
ag9
(g13
S'\xfb^\xfcOV9\xc2?'
p62
tp63
Rp64
aatp65
Rp66
aa(lp67
S'CORDES WILLIAM R'
p68
ag0
((lp69
(lp70
g6
aI00
aa(lp71
g8
ag9
(g13
S'\x00\x00\x00\x00\x00\x00\x00\x00'
p72
tp73
Rp74
aa(lp75
g20
ag21
aa(lp76
g23
aI1038185
aa(lp77
g25
ag21
aa(lp78
g27
ag9
(g13
S'\x1cKXc\xddn\x93?'
p79
tp80
Rp81
aatp82
Rp83
aa(lp84
S'HANNON KEVIN P'
p85
ag0
((lp86
(lp87
g6
aI01
aa(lp88
g8
ag9
(g13
S'\xcb\xc7B\xda\r\x06\xcc?'
p89
tp90
Rp91
aa(lp92
g20
aI-3117011
aa(lp93
g23
aI6391065
aa(lp94
g25
aI34039
aa(lp95
g27
ag9
(g13
S'MyF\xf71\xa3\xc4?'
p96
tp97
Rp98
aatp99
Rp100
aa(lp101
S'MORDAUNT KRISTINA M'
p102
ag0
((lp103
(lp104
g6
aI00
aa(lp105
g8
ag9
(g13
S'\x1cN\xb9\x15\xda\xc3\xce?'
p106
tp107
Rp108
aa(lp109
g20
ag21
aa(lp110
g23
aI208510
aa(lp111
g25
aI35018
aa(lp112
g27
ag9
(g13
S'\x00\x00\x00\x00\x00\x00\x00\x00'
p113
tp114
Rp115
aatp116
Rp117
aa(lp118
S'MEYER ROCKFORD G'
p119
ag0
((lp120
(lp121
g6
aI00
aa(lp122
g8
ag9
(g13
S'\x00\x00\x00\x00\x00\x00\x00\x00'
p123
tp124
Rp125
aa(lp126
g20
ag21
aa(lp127
g23
aI955873
aa(lp128
g25
ag21
aa(lp129
g27
ag9
(g13
S'\xce\x87\x1c\xa2\x88l\x8d?'
p130
tp131
Rp132
aatp133
Rp134
aa(lp135
S'MCMAHON JEFFREY'
p136
ag0
((lp137
(lp138
g6
aI00
aa(lp139
g8
ag9
(g13
S'\xf2\xe95\x88\xc1U\xd5?'
p140
tp141
Rp142
aa(lp143
g20
ag21
aa(lp144
g23
aI1662855
aa(lp145
g25
aI137108
aa(lp146
g27
ag9
(g13
S'%\xa4[$\x06u\xa0?'
p147
tp148
Rp149
aatp150
Rp151
aa(lp152
S'HORTON STANLEY C'
p153
ag0
((lp154
(lp155
g6
aI00
aa(lp156
g8
ag9
(g13
S'\x00\x00\x00\x00\x00\x00\x00\x00'
p157
tp158
Rp159
aa(lp160
g20
ag21
aa(lp161
g23
aI7256648
aa(lp162
g25
ag21
aa(lp163
g27
ag9
(g13
S'I`n\x16\xd4j\xc3?'
p164
tp165
Rp166
aatp167
Rp168
aa(lp169
S'PIPER GREGORY F'
p170
ag0
((lp171
(lp172
g6
aI00
aa(lp173
g8
ag9
(g13
S'#\xbf\x1b\x8a\xae\xb3\xc6?'
p174
tp175
Rp176
aa(lp177
g20
aI-33333
aa(lp178
g23
aI880290
aa(lp179
g25
aI43057
aa(lp180
g27
ag9
(g13
S'\x92\xf1u\xc0L>\x9a?'
p181
tp182
Rp183
aatp184
Rp185
aa(lp186
S'HUMPHREY GENE E'
p187
ag0
((lp188
(lp189
g6
aI00
aa(lp190
g8
ag9
(g13
S'\x8303ee\x1d\xbe?'
p191
tp192
Rp193
aa(lp194
g20
ag21
aa(lp195
g23
aI2282768
aa(lp196
g25
aI4994
aa(lp197
g27
ag9
(g13
S'\x1d\xb5ZEy\x03\xb1?'
p198
tp199
Rp200
aatp201
Rp202
aa(lp203
S'UMANOFF ADAM S'
p204
ag0
((lp205
(lp206
g6
aI00
aa(lp207
g8
ag9
(g13
S'\xcc_\xda\xff\xda\x9e\xd0?'
p208
tp209
Rp210
aa(lp211
g20
ag21
aa(lp212
g23
ag21
aa(lp213
g25
aI53122
aa(lp214
g27
ag9
(g13
S'\x00\x00\x00\x00\x00\x00\x00\x00'
p215
tp216
Rp217
aatp218
Rp219
aa(lp220
S'BLACHMAN JEREMY M'
p221
ag0
((lp222
(lp223
g6
aI00
aa(lp224
g8
ag9
(g13
S'\xf5\x10\xb3n\xf3\xa0\xcc?'
p225
tp226
Rp227
aa(lp228
g20
ag21
aa(lp229
g23
aI954354
aa(lp230
g25
aI84208
aa(lp231
g27
ag9
(g13
S'=\xb5\xc8\x10\xce\xd0\x96?'
p232
tp233
Rp234
aatp235
Rp236
aa(lp237
S'SUNDE MARTIN'
p238
ag0
((lp239
(lp240
g6
aI00
aa(lp241
g8
ag9
(g13
S'!\xfb1@\x91\xa8\xcd?'
p242
tp243
Rp244
aa(lp245
g20
ag21
aa(lp246
g23
aI698920
aa(lp247
g25
ag21
aa(lp248
g27
ag9
(g13
S'\x00\x00\x00\x00\x00\x00\x00\x00'
p249
tp250
Rp251
aatp252
Rp253
aa(lp254
S'GIBBS DANA R'
p255
ag0
((lp256
(lp257
g6
aI00
aa(lp258
g8
ag9
(g13
S'\x00\x00\x00\x00\x00\x00\x00\x00'
p259
tp260
Rp261
aa(lp262
g20
ag21
aa(lp263
g23
aI2218275
aa(lp264
g25
ag21
aa(lp265
g27
ag9
(g13
S'\x8c\xedv#l\x88\xb0?'
p266
tp267
Rp268
aatp269
Rp270
aa(lp271
S'LOWRY CHARLES P'
p272
ag0
((lp273
(lp274
g6
aI00
aa(lp275
g8
ag9
(g13
S'\x00\x00\x00\x00\x00\x00\x00\x00'
p276
tp277
Rp278
aa(lp279
g20
ag21
aa(lp280
g23
aI372205
aa(lp281
g25
ag21
aa(lp282
g27
ag9
(g13
S'B\xb7\xe2eF1\x86?'
p283
tp284
Rp285
aatp286
Rp287
aa(lp288
S'COLWELL WESLEY'
p289
ag0
((lp290
(lp291
g6
aI01
aa(lp292
g8
ag9
(g13
S'N\xd7\x93\x9a)\x9e\xd0?'
p293
tp294
Rp295
aa(lp296
g20
aI-144062
aa(lp297
g23
aI698242
aa(lp298
g25
aI16514
aa(lp299
g27
ag9
(g13
S'\x00\x00\x00\x00\x00\x00\x00\x00'
p300
tp301
Rp302
aatp303
Rp304
aa(lp305
S'MULLER MARK S'
p306
ag0
((lp307
(lp308
g6
aI00
aa(lp309
g8
ag9
(g13
S'en\xf2\xf1\x98\xfc\xcc?'
p310
tp311
Rp312
aa(lp313
g20
aI-719000
aa(lp314
g23
aI1416848
aa(lp315
g25
ag21
aa(lp316
g27
ag9
(g13
S'\xec\xfc\x1f\xff\xbe}\x9f?'
p317
tp318
Rp319
aatp320
Rp321
aa(lp322
S'JACKSON CHARLENE R'
p323
ag0
((lp324
(lp325
g6
aI00
aa(lp326
g8
ag9
(g13
S'\x9a}j\xfee\x9e\xd0?'
p327
tp328
Rp329
aa(lp330
g20
ag21
aa(lp331
g23
aI725735
aa(lp332
g25
aI10181
aa(lp333
g27
ag9
(g13
S'\xe7,\xa4\x9e\x8a\x11v?'
p334
tp335
Rp336
aatp337
Rp338
aa(lp339
S'WESTFAHL RICHARD K'
p340
ag0
((lp341
(lp342
g6
aI00
aa(lp343
g8
ag9
(g13
S'6\xac\xdf\xe3\x8d^\xad?'
p344
tp345
Rp346
aa(lp347
g20
aI-10800
aa(lp348
g23
aI384930
aa(lp349
g25
aI51870
aa(lp350
g27
ag9
(g13
S'\x00\x00\x00\x00\x00\x00\x00\x00'
p351
tp352
Rp353
aatp354
Rp355
aa(lp356
S'WALTERS GARETH W'
p357
ag0
((lp358
(lp359
g6
aI00
aa(lp360
g8
ag9
(g13
S'\x00\x00\x00\x00\x00\x00\x00\x00'
p361
tp362
Rp363
aa(lp364
g20
ag21
aa(lp365
g23
aI1030329
aa(lp366
g25
aI33785
aa(lp367
g27
ag9
(g13
S'`\x04E\x8bb\xb7\x9e?'
p368
tp369
Rp370
aatp371
Rp372
aa(lp373
S'WALLS JR ROBERT H'
p374
ag0
((lp375
(lp376
g6
aI00
aa(lp377
g8
ag9
(g13
S'+\xc1\xcd5\xd3\x90\xd4?'
p378
tp379
Rp380
aa(lp381
g20
ag21
aa(lp382
g23
aI5898997
aa(lp383
g25
aI50936
aa(lp384
g27
ag9
(g13
S'\xa0\xd3\xe9\xc0\x8e2\xc0?'
p385
tp386
Rp387
aatp388
Rp389
aa(lp390
S'KITCHEN LOUISE'
p391
ag0
((lp392
(lp393
g6
aI00
aa(lp394
g8
ag9
(g13
S'\xfd/j\x98\x17D\xcf?'
p395
tp396
Rp397
aa(lp398
g20
ag21
aa(lp399
g23
aI547143
aa(lp400
g25
aI5774
aa(lp401
g27
ag9
(g13
S'\xaa\xdf\x8a\xd6\x0bTc?'
p402
tp403
Rp404
aatp405
Rp406
aa(lp407
S'CHAN RONNIE'
p408
ag0
((lp409
(lp410
g6
aI00
aa(lp411
g8
ag9
(g13
S'\x00\x00\x00\x00\x00\x00\x00\x00'
p412
tp413
Rp414
aa(lp415
g20
aI-98784
aa(lp416
g23
ag21
aa(lp417
g25
ag21
aa(lp418
g27
ag9
(g13
S'\x00\x00\x00\x00\x00\x00\x00\x00'
p419
tp420
Rp421
aatp422
Rp423
aa(lp424
S'BELFER ROBERT'
p425
ag0
((lp426
(lp427
g6
aI00
aa(lp428
g8
ag9
(g13
S'\x00\x00\x00\x00\x00\x00\x00\x00'
p429
tp430
Rp431
aa(lp432
g20
ag21
aa(lp433
g23
aI-44093
aa(lp434
g25
ag21
aa(lp435
g27
ag9
(g13
S'f6\xe7\xf3"\x12\x19?'
p436
tp437
Rp438
aatp439
Rp440
aa(lp441
S'SHANKMAN JEFFREY A'
p442
ag0
((lp443
(lp444
g6
aI00
aa(lp445
g8
ag9
(g13
S'\xe9\xe3i\x11\xb1\x83\xd1?'
p446
tp447
Rp448
aa(lp449
g20
ag21
aa(lp450
g23
aI2072035
aa(lp451
g25
aI178979
aa(lp452
g27
ag9
(g13
S'\xb7\xdc1\xfc8~\xa5?'
p453
tp454
Rp455
aatp456
Rp457
aa(lp458
S'WODRASKA JOHN'
p459
ag0
((lp460
(lp461
g6
aI00
aa(lp462
g8
ag9
(g13
S'\x00\x00\x00\x00\x00\x00\x00\x00'
p463
tp464
Rp465
aa(lp466
g20
ag21
aa(lp467
g23
ag21
aa(lp468
g25
ag21
aa(lp469
g27
ag9
(g13
S'\x00\x00\x00\x00\x00\x00\x00\x00'
p470
tp471
Rp472
aatp473
Rp474
aa(lp475
S'BERGSIEKER RICHARD P'
p476
ag0
((lp477
(lp478
g6
aI00
aa(lp479
g8
ag9
(g13
S'\xc9|\xbc\x0eP\xa5\xc5?'
p480
tp481
Rp482
aa(lp483
g20
aI-485813
aa(lp484
g23
aI659249
aa(lp485
g25
aI59175
aa(lp486
g27
ag9
(g13
S'\x00\x00\x00\x00\x00\x00\x00\x00'
p487
tp488
Rp489
aatp490
Rp491
aa(lp492
S'URQUHART JOHN A'
p493
ag0
((lp494
(lp495
g6
aI00
aa(lp496
g8
ag9
(g13
S'\x00\x00\x00\x00\x00\x00\x00\x00'
p497
tp498
Rp499
aa(lp500
g20
aI-36666
aa(lp501
g23
ag21
aa(lp502
g25
aI228656
aa(lp503
g27
ag9
(g13
S'\x00\x00\x00\x00\x00\x00\x00\x00'
p504
tp505
Rp506
aatp507
Rp508
aa(lp509
S'BIBI PHILIPPE A'
p510
ag0
((lp511
(lp512
g6
aI00
aa(lp513
g8
ag9
(g13
S'k\xc8F\x8f9\x9b\xc8?'
p514
tp515
Rp516
aa(lp517
g20
ag21
aa(lp518
g23
aI1843816
aa(lp519
g25
aI38559
aa(lp520
g27
ag9
(g13
S'[\xd8\x07\x06.\xd9\xa5?'
p521
tp522
Rp523
aatp524
Rp525
aa(lp526
S'RIEKER PAULA H'
p527
ag0
((lp528
(lp529
g6
aI01
aa(lp530
g8
ag9
(g13
S'S\x80\xf9\xdcC\xb4\xcc?'
p531
tp532
Rp533
aa(lp534
g20
aI-100000
aa(lp535
g23
aI1918887
aa(lp536
g25
aI33271
aa(lp537
g27
ag9
(g13
S'\xb0\xd5\x0b\xfe\xff_\xa8?'
p538
tp539
Rp540
aatp541
Rp542
aa(lp543
S'WHALEY DAVID A'
p544
ag0
((lp545
(lp546
g6
aI00
aa(lp547
g8
ag9
(g13
S'\x00\x00\x00\x00\x00\x00\x00\x00'
p548
tp549
Rp550
aa(lp551
g20
ag21
aa(lp552
g23
aI98718
aa(lp553
g25
ag21
aa(lp554
g27
ag9
(g13
S'\xf1}\xcc\xa2B\x8bg?'
p555
tp556
Rp557
aatp558
Rp559
aa(lp560
S'BECK SALLY W'
p561
ag0
((lp562
(lp563
g6
aI00
aa(lp564
g8
ag9
(g13
S"\x11'M*L\xa5\xca?"
p565
tp566
Rp567
aa(lp568
g20
ag21
aa(lp569
g23
aI126027
aa(lp570
g25
aI37172
aa(lp571
g27
ag9
(g13
S'\x00\x00\x00\x00\x00\x00\x00\x00'
p572
tp573
Rp574
aatp575
Rp576
aa(lp577
S'HAUG DAVID L'
p578
ag0
((lp579
(lp580
g6
aI00
aa(lp581
g8
ag9
(g13
S'\x00\x00\x00\x00\x00\x00\x00\x00'
p582
tp583
Rp584
aa(lp585
g20
ag21
aa(lp586
g23
aI2217299
aa(lp587
g25
aI475
aa(lp588
g27
ag9
(g13
S'\x00\x00\x00\x00\x00\x00\x00\x00'
p589
tp590
Rp591
aatp592
Rp593
aa(lp594
S'ECHOLS JOHN B'
p595
ag0
((lp596
(lp597
g6
aI00
aa(lp598
g8
ag9
(g13
S'\x02\xc6\xdb\xce\xe9\xfd\xc4?'
p599
tp600
Rp601
aa(lp602
g20
ag21
aa(lp603
g23
aI1008941
aa(lp604
g25
aI21530
aa(lp605
g27
ag9
(g13
S'X\xa9 \xe7\x1f\xee\x91?'
p606
tp607
Rp608
aatp609
Rp610
aa(lp611
S'MENDELSOHN JOHN'
p612
ag0
((lp613
(lp614
g6
aI00
aa(lp615
g8
ag9
(g13
S'\x00\x00\x00\x00\x00\x00\x00\x00'
p616
tp617
Rp618
aa(lp619
g20
aI-103750
aa(lp620
g23
ag21
aa(lp621
g25
aI148
aa(lp622
g27
ag9
(g13
S'\x00\x00\x00\x00\x00\x00\x00\x00'
p623
tp624
Rp625
aatp626
Rp627
aa(lp628
S'HICKERSON GARY J'
p629
ag0
((lp630
(lp631
g6
aI00
aa(lp632
g8
ag9
(g13
S'\x08\xdf\xdd\x81\x0ee\xc8?'
p633
tp634
Rp635
aa(lp636
g20
ag21
aa(lp637
g23
aI441096
aa(lp638
g25
aI98849
aa(lp639
g27
ag9
(g13
S'\x00\x00\x00\x00\x00\x00\x00\x00'
p640
tp641
Rp642
aatp643
Rp644
aa(lp645
S'CLINE KENNETH W'
p646
ag0
((lp647
(lp648
g6
aI00
aa(lp649
g8
ag9
(g13
S'\x00\x00\x00\x00\x00\x00\x00\x00'
p650
tp651
Rp652
aa(lp653
g20
ag21
aa(lp654
g23
aI189518
aa(lp655
g25
ag21
aa(lp656
g27
ag9
(g13
S'\x00\x00\x00\x00\x00\x00\x00\x00'
p657
tp658
Rp659
aatp660
Rp661
aa(lp662
S'LEWIS RICHARD'
p663
ag0
((lp664
(lp665
g6
aI00
aa(lp666
g8
ag9
(g13
S'\x00\x00\x00\x00\x00\x00\x00\x00'
p667
tp668
Rp669
aa(lp670
g20
ag21
aa(lp671
g23
aI850477
aa(lp672
g25
ag21
aa(lp673
g27
ag9
(g13
S'g]\xe5\xfc\xc4Z\x99?'
p674
tp675
Rp676
aatp677
Rp678
aa(lp679
S'HAYES ROBERT E'
p680
ag0
((lp681
(lp682
g6
aI00
aa(lp683
g8
ag9
(g13
S'\x00\x00\x00\x00\x00\x00\x00\x00'
p684
tp685
Rp686
aa(lp687
g20
ag21
aa(lp688
g23
aI151418
aa(lp689
g25
ag21
aa(lp690
g27
ag9
(g13
S'\x00\x00\x00\x00\x00\x00\x00\x00'
p691
tp692
Rp693
aatp694
Rp695
aa(lp696
S'MCCARTY DANNY J'
p697
ag0
((lp698
(lp699
g6
aI00
aa(lp700
g8
ag9
(g13
S'\x00\x00\x00\x00\x00\x00\x00\x00'
p701
tp702
Rp703
aa(lp704
g20
ag21
aa(lp705
g23
aI758931
aa(lp706
g25
ag21
aa(lp707
g27
ag9
(g13
S'\x8f\xd7\x81]t\xce\x93?'
p708
tp709
Rp710
aatp711
Rp712
aa(lp713
S'KOPPER MICHAEL J'
p714
ag0
((lp715
(lp716
g6
aI01
aa(lp717
g8
ag9
(g13
S'\xa8\xfb\xa33&\xd6\xc9?'
p718
tp719
Rp720
aa(lp721
g20
ag21
aa(lp722
g23
aI985032
aa(lp723
g25
aI118134
aa(lp724
g27
ag9
(g13
S'\x00\x00\x00\x00\x00\x00\x00\x00'
p725
tp726
Rp727
aatp728
Rp729
aa(lp730
S'LEFF DANIEL P'
p731
ag0
((lp732
(lp733
g6
aI00
aa(lp734
g8
ag9
(g13
S'\xd2D\xe5\xe9\x07\x88\xcf?'
p735
tp736
Rp737
aa(lp738
g20
ag21
aa(lp739
g23
aI360528
aa(lp740
g25
ag21
aa(lp741
g27
ag9
(g13
S'\x00\x00\x00\x00\x00\x00\x00\x00'
p742
tp743
Rp744
aatp745
Rp746
aa(lp747
S'LAVORATO JOHN J'
p748
ag0
((lp749
(lp750
g6
aI00
aa(lp751
g8
ag9
(g13
S'J\xd7\xc7\x04X\x8a\xd3?'
p752
tp753
Rp754
aa(lp755
g20
ag21
aa(lp756
g23
aI5167144
aa(lp757
g25
aI49537
aa(lp758
g27
ag9
(g13
S'`L0\x93F\xff\xbe?'
p759
tp760
Rp761
aatp762
Rp763
aa(lp764
S'BERBERIAN DAVID'
p765
ag0
((lp766
(lp767
g6
aI00
aa(lp768
g8
ag9
(g13
S'\x0b\xa3\x126k\xf2\xc8?'
p769
tp770
Rp771
aa(lp772
g20
ag21
aa(lp773
g23
aI2493616
aa(lp774
g25
aI11892
aa(lp775
g27
ag9
(g13
S':\xdc\x0c\x9a\xa06\xa8?'
p776
tp777
Rp778
aatp779
Rp780
aa(lp781
S'DETMERING TIMOTHY J'
p782
ag0
((lp783
(lp784
g6
aI00
aa(lp785
g8
ag9
(g13
S'\x9bI\xdf\xb7\x13?\xc8?'
p786
tp787
Rp788
aa(lp789
g20
aI-775241
aa(lp790
g23
aI2027865
aa(lp791
g25
aI52255
aa(lp792
g27
ag9
(g13
S'\xd9f7\x8b?:\xae?'
p793
tp794
Rp795
aatp796
Rp797
aa(lp798
S'WAKEHAM JOHN'
p799
ag0
((lp800
(lp801
g6
aI00
aa(lp802
g8
ag9
(g13
S'\x00\x00\x00\x00\x00\x00\x00\x00'
p803
tp804
Rp805
aa(lp806
g20
ag21
aa(lp807
g23
ag21
aa(lp808
g25
aI103773
aa(lp809
g27
ag9
(g13
S'\x00\x00\x00\x00\x00\x00\x00\x00'
p810
tp811
Rp812
aatp813
Rp814
aa(lp815
S'POWERS WILLIAM'
p816
ag0
((lp817
(lp818
g6
aI00
aa(lp819
g8
ag9
(g13
S'\x00\x00\x00\x00\x00\x00\x00\x00'
p820
tp821
Rp822
aa(lp823
g20
aI-17500
aa(lp824
g23
ag21
aa(lp825
g25
ag21
aa(lp826
g27
ag9
(g13
S'\x00\x00\x00\x00\x00\x00\x00\x00'
p827
tp828
Rp829
aatp830
Rp831
aa(lp832
S'GOLD JOSEPH'
p833
ag0
((lp834
(lp835
g6
aI00
aa(lp836
g8
ag9
(g13
S'psa\xb2~n\xcf?'
p837
tp838
Rp839
aa(lp840
g20
ag21
aa(lp841
g23
aI877611
aa(lp842
g25
ag21
aa(lp843
g27
ag9
(g13
S'\x99\xa6\x82`\xe4\x06\x8a?'
p844
tp845
Rp846
aatp847
Rp848
aa(lp849
S'BANNANTINE JAMES M'
p850
ag0
((lp851
(lp852
g6
aI00
aa(lp853
g8
ag9
(g13
S'S\xa0\xf6\xbc\x81!<?'
p854
tp855
Rp856
aa(lp857
g20
aI-5104
aa(lp858
g23
aI5243487
aa(lp859
g25
aI56301
aa(lp860
g27
ag9
(g13
S"\xd1}\xa7\xae\xfb'\xbe?"
p861
tp862
Rp863
aatp864
Rp865
aa(lp866
S'DUNCAN JOHN H'
p867
ag0
((lp868
(lp869
g6
aI00
aa(lp870
g8
ag9
(g13
S'\x00\x00\x00\x00\x00\x00\x00\x00'
p871
tp872
Rp873
aa(lp874
g20
aI-25000
aa(lp875
g23
aI371750
aa(lp876
g25
ag21
aa(lp877
g27
ag9
(g13
S'\x04\x86zwT*\x86?'
p878
tp879
Rp880
aatp881
Rp882
aa(lp883
S'SHAPIRO RICHARD S'
p884
ag0
((lp885
(lp886
g6
aI00
aa(lp887
g8
ag9
(g13
S'_\x92/AS\xfe\xce?'
p888
tp889
Rp890
aa(lp891
g20
ag21
aa(lp892
g23
aI987001
aa(lp893
g25
aI137767
aa(lp894
g27
ag9
(g13
S'\x8e\x10\xc5\x14\xf6\x1e\x92?'
p895
tp896
Rp897
aatp898
Rp899
aa(lp900
S'SHERRIFF JOHN R'
p901
ag0
((lp902
(lp903
g6
aI00
aa(lp904
g8
ag9
(g13
S'V\xa6TZ\xc8\xb1\xd8?'
p905
tp906
Rp907
aa(lp908
g20
ag21
aa(lp909
g23
aI3128982
aa(lp910
g25
ag21
aa(lp911
g27
ag9
(g13
S'W\xbb\xbb\xa8i\\\xab?'
p912
tp913
Rp914
aatp915
Rp916
aa(lp917
S'SHELBY REX'
p918
ag0
((lp919
(lp920
g6
aI01
aa(lp921
g8
ag9
(g13
S'\x17k\xbc<\xb5f\xc8?'
p922
tp923
Rp924
aa(lp925
g20
aI-4167
aa(lp926
g23
aI2493616
aa(lp927
g25
aI22884
aa(lp928
g27
ag9
(g13
S':\xdc\x0c\x9a\xa06\xa8?'
p929
tp930
Rp931
aatp932
Rp933
aa(lp934
S'LEMAISTRE CHARLES'
p935
ag0
((lp936
(lp937
g6
aI00
aa(lp938
g8
ag9
(g13
S'\x00\x00\x00\x00\x00\x00\x00\x00'
p939
tp940
Rp941
aa(lp942
g20
aI-25000
aa(lp943
g23
aI412878
aa(lp944
g25
ag21
aa(lp945
g27
ag9
(g13
S'\x99\x03\xf3\xd2\x19\x9e\x88?'
p946
tp947
Rp948
aatp949
Rp950
aa(lp951
S'DEFFNER JOSEPH M'
p952
ag0
((lp953
(lp954
g6
aI00
aa(lp955
g8
ag9
(g13
S'\x1fx\xc9\xbe\xf3\xbd\xc7?'
p956
tp957
Rp958
aa(lp959
g20
ag21
aa(lp960
g23
aI159211
aa(lp961
g25
aI41626
aa(lp962
g27
ag9
(g13
S'\x13c\xe4\x08\x14\x94@?'
p963
tp964
Rp965
aatp966
Rp967
aa(lp968
S'KISHKILL JOSEPH G'
p969
ag0
((lp970
(lp971
g6
aI00
aa(lp972
g8
ag9
(g13
S'<\x04\xdd\\\x0b\x12\xc4?'
p973
tp974
Rp975
aa(lp976
g20
aI-51042
aa(lp977
g23
aI1034346
aa(lp978
g25
aI116335
aa(lp979
g27
ag9
(g13
S'\x00\x00\x00\x00\x00\x00\x00\x00'
p980
tp981
Rp982
aatp983
Rp984
aa(lp985
S'WHALLEY LAWRENCE G'
p986
ag0
((lp987
(lp988
g6
aI00
aa(lp989
g8
ag9
(g13
S'L\xe6\xb6\xee\xa0d\xdd?'
p990
tp991
Rp992
aa(lp993
g20
ag21
aa(lp994
g23
aI6079137
aa(lp995
g25
aI57838
aa(lp996
g27
ag9
(g13
S'T\x85\xe4\xb5\xd1w\xb8?'
p997
tp998
Rp999
aatp1000
Rp1001
aa(lp1002
S'MCCONNELL MICHAEL S'
p1003
ag0
((lp1004
(lp1005
g6
aI00
aa(lp1006
g8
ag9
(g13
S'\x99\x85S*\xfe\x05\xd5?'
p1007
tp1008
Rp1009
aa(lp1010
g20
ag21
aa(lp1011
g23
aI3101279
aa(lp1012
g25
aI81364
aa(lp1013
g27
ag9
(g13
S'\xd5o\x82\xa3V1\xa8?'
p1014
tp1015
Rp1016
aatp1017
Rp1018
aa(lp1019
S'PIRO JIM'
p1020
ag0
((lp1021
(lp1022
g6
aI00
aa(lp1023
g8
ag9
(g13
S'\x00\x00\x00\x00\x00\x00\x00\x00'
p1024
tp1025
Rp1026
aa(lp1027
g20
ag21
aa(lp1028
g23
aI47304
aa(lp1029
g25
ag21
aa(lp1030
g27
ag9
(g13
S'\x00\x00\x00\x00\x00\x00\x00\x00'
p1031
tp1032
Rp1033
aatp1034
Rp1035
aa(lp1036
S'DELAINEY DAVID W'
p1037
ag0
((lp1038
(lp1039
g6
aI01
aa(lp1040
g8
ag9
(g13
S'\xc6xP\xf6\xd5\x07\xd5?'
p1041
tp1042
Rp1043
aa(lp1044
g20
ag21
aa(lp1045
g23
aI3614261
aa(lp1046
g25
aI86174
aa(lp1047
g27
ag9
(g13
S'\xeb\xbd,Se\x13\xb1?'
p1048
tp1049
Rp1050
aatp1051
Rp1052
aa(lp1053
S'SULLIVAN-SHAKLOVITZ COLLEEN'
p1054
ag0
((lp1055
(lp1056
g6
aI00
aa(lp1057
g8
ag9
(g13
S'\xc5\xa9\xe3\xda\xe9\xbf\xc2?'
p1058
tp1059
Rp1060
aa(lp1061
g20
ag21
aa(lp1062
g23
aI1362375
aa(lp1063
g25
ag21
aa(lp1064
g27
ag9
(g13
S'\xb6_Q"\xc4N\xa4?'
p1065
tp1066
Rp1067
aatp1068
Rp1069
aa(lp1070
S'WROBEL BRUCE'
p1071
ag0
((lp1072
(lp1073
g6
aI00
aa(lp1074
g8
ag9
(g13
S'\x00\x00\x00\x00\x00\x00\x00\x00'
p1075
tp1076
Rp1077
aa(lp1078
g20
ag21
aa(lp1079
g23
aI139130
aa(lp1080
g25
ag21
aa(lp1081
g27
ag9
(g13
S'J\xcd\xf8nP\x97p?'
p1082
tp1083
Rp1084
aatp1085
Rp1086
aa(lp1087
S'LINDHOLM TOD A'
p1088
ag0
((lp1089
(lp1090
g6
aI00
aa(lp1091
g8
ag9
(g13
S'\x18\xb5H\x9az<\xcb?'
p1092
tp1093
Rp1094
aa(lp1095
g20
ag21
aa(lp1096
g23
aI3064208
aa(lp1097
g25
aI57727
aa(lp1098
g27
ag9
(g13
S'\xa4h#\xaa \x00\xb3?'
p1099
tp1100
Rp1101
aatp1102
Rp1103
aa(lp1104
S'MEYER JEROME J'
p1105
ag0
((lp1106
(lp1107
g6
aI00
aa(lp1108
g8
ag9
(g13
S'\x00\x00\x00\x00\x00\x00\x00\x00'
p1109
tp1110
Rp1111
aa(lp1112
g20
aI-38346
aa(lp1113
g23
ag21
aa(lp1114
g25
aI2151
aa(lp1115
g27
ag9
(g13
S'\x00\x00\x00\x00\x00\x00\x00\x00'
p1116
tp1117
Rp1118
aatp1119
Rp1120
aa(lp1121
S'LAY KENNETH L'
p1122
ag0
((lp1123
(lp1124
g6
aI01
aa(lp1125
g8
ag9
(g13
S'\xe6gj\x96\xf6\xe0\xee?'
p1126
tp1127
Rp1128
aa(lp1129
g20
aI-300000
aa(lp1130
g23
aI49110078
aa(lp1131
g25
aI99832
aa(lp1132
g27
ag9
(g13
S'\x00\x00\x00\x00\x00\x00\xf0?'
p1133
tp1134
Rp1135
aatp1136
Rp1137
aa(lp1138
S'BUTTS ROBERT H'
p1139
ag0
((lp1140
(lp1141
g6
aI00
aa(lp1142
g8
ag9
(g13
S'\x04\xb6\xd3\xb5f\x1f\xce?'
p1143
tp1144
Rp1145
aa(lp1146
g20
aI-75000
aa(lp1147
g23
aI417619
aa(lp1148
g25
aI9410
aa(lp1149
g27
ag9
(g13
S'\x00\x00\x00\x00\x00\x00\x00\x00'
p1150
tp1151
Rp1152
aatp1153
Rp1154
aa(lp1155
S'OLSON CINDY K'
p1156
ag0
((lp1157
(lp1158
g6
aI00
aa(lp1159
g8
ag9
(g13
S'\x93\x92Z\xa7\xcf\xf3\xd2?'
p1160
tp1161
Rp1162
aa(lp1163
g20
ag21
aa(lp1164
g23
aI2606763
aa(lp1165
g25
aI63791
aa(lp1166
g27
ag9
(g13
S'\x8cGxz\xdaf\xa8?'
p1167
tp1168
Rp1169
aatp1170
Rp1171
aa(lp1172
S'MCDONALD REBECCA'
p1173
ag0
((lp1174
(lp1175
g6
aI00
aa(lp1176
g8
ag9
(g13
S'\x00\x00\x00\x00\x00\x00\x00\x00'
p1177
tp1178
Rp1179
aa(lp1180
g20
ag21
aa(lp1181
g23
aI1691366
aa(lp1182
g25
ag21
aa(lp1183
g27
ag9
(g13
S'\xe7\x90\x8at\xa8\x93\x96?'
p1184
tp1185
Rp1186
aatp1187
Rp1188
aa(lp1189
S'CUMBERLAND MICHAEL S'
p1190
ag0
((lp1191
(lp1192
g6
aI00
aa(lp1193
g8
ag9
(g13
S':\xc6E0,L\xc5?'
p1194
tp1195
Rp1196
aa(lp1197
g20
ag21
aa(lp1198
g23
aI207940
aa(lp1199
g25
aI22344
aa(lp1200
g27
ag9
(g13
S'\x00\x00\x00\x00\x00\x00\x00\x00'
p1201
tp1202
Rp1203
aatp1204
Rp1205
aa(lp1206
S'GAHN ROBERT S'
p1207
ag0
((lp1208
(lp1209
g6
aI00
aa(lp1210
g8
ag9
(g13
S'\xbb\xc3<?\xcc\x1d\xc6?'
p1211
tp1212
Rp1213
aa(lp1214
g20
aI-1042
aa(lp1215
g23
aI318607
aa(lp1216
g25
aI50080
aa(lp1217
g27
ag9
(g13
S'i\xd9\xe6\x0c\x10\xdac?'
p1218
tp1219
Rp1220
aatp1221
Rp1222
aa(lp1223
S'MCCLELLAN GEORGE'
p1224
ag0
((lp1225
(lp1226
g6
aI00
aa(lp1227
g8
ag9
(g13
S'\x9c~\x06\xb0VW\xce?'
p1228
tp1229
Rp1230
aa(lp1231
g20
aI-125000
aa(lp1232
g23
aI947861
aa(lp1233
g25
aI228763
aa(lp1234
g27
ag9
(g13
S'\x87\xb3\xb0&-7\x8e?'
p1235
tp1236
Rp1237
aatp1238
Rp1239
aa(lp1240
S'HERMANN ROBERT J'
p1241
ag0
((lp1242
(lp1243
g6
aI00
aa(lp1244
g8
ag9
(g13
S'\x7f\x18+ 9A\xce?'
p1245
tp1246
Rp1247
aa(lp1248
g20
aI-280000
aa(lp1249
g23
aI668132
aa(lp1250
g25
aI48357
aa(lp1251
g27
ag9
(g13
S'\nx\xd0\xf9\xef[v?'
p1252
tp1253
Rp1254
aatp1255
Rp1256
aa(lp1257
S'SCRIMSHAW MATTHEW'
p1258
ag0
((lp1259
(lp1260
g6
aI00
aa(lp1261
g8
ag9
(g13
S'\x00\x00\x00\x00\x00\x00\x00\x00'
p1262
tp1263
Rp1264
aa(lp1265
g20
ag21
aa(lp1266
g23
aI759557
aa(lp1267
g25
ag21
aa(lp1268
g27
ag9
(g13
S'\xfd\x1ck)\xe0\xa4\x96?'
p1269
tp1270
Rp1271
aatp1272
Rp1273
aa(lp1274
S'GATHMANN WILLIAM D'
p1275
ag0
((lp1276
(lp1277
g6
aI00
aa(lp1278
g8
ag9
(g13
S'\x00\x00\x00\x00\x00\x00\x00\x00'
p1279
tp1280
Rp1281
aa(lp1282
g20
ag21
aa(lp1283
g23
aI1945360
aa(lp1284
g25
ag21
aa(lp1285
g27
ag9
(g13
S'\xa0\xf0WAL$\xaa?'
p1286
tp1287
Rp1288
aatp1289
Rp1290
aa(lp1291
S'HAEDICKE MARK E'
p1292
ag0
((lp1293
(lp1294
g6
aI00
aa(lp1295
g8
ag9
(g13
S'\x83\x12W\xe8\xf7\x8b\xd5?'
p1296
tp1297
Rp1298
aa(lp1299
g20
aI-934484
aa(lp1300
g23
aI803094
aa(lp1301
g25
aI76169
aa(lp1302
g27
ag9
(g13
S'\xa51\xac\xdf\xed%\x92?'
p1303
tp1304
Rp1305
aatp1306
Rp1307
aa(lp1308
S'BOWEN JR RAYMOND M'
p1309
ag0
((lp1310
(lp1311
g6
aI01
aa(lp1312
g8
ag9
(g13
S'k^\xaf\x8b\x98\x0b\xd0?'
p1313
tp1314
Rp1315
aa(lp1316
g20
aI-833
aa(lp1317
g23
aI252055
aa(lp1318
g25
aI65907
aa(lp1319
g27
ag9
(g13
S'\x00\x00\x00\x00\x00\x00\x00\x00'
p1320
tp1321
Rp1322
aatp1323
Rp1324
aa(lp1325
S'GILLIS JOHN'
p1326
ag0
((lp1327
(lp1328
g6
aI00
aa(lp1329
g8
ag9
(g13
S'\x00\x00\x00\x00\x00\x00\x00\x00'
p1330
tp1331
Rp1332
aa(lp1333
g20
ag21
aa(lp1334
g23
aI85641
aa(lp1335
g25
ag21
aa(lp1336
g27
ag9
(g13
S'\xcb\x13\xde\x104\xb42?'
p1337
tp1338
Rp1339
aatp1340
Rp1341
aa(lp1342
S'FITZGERALD JAY L'
p1343
ag0
((lp1344
(lp1345
g6
aI00
aa(lp1346
g8
ag9
(g13
S'\xb5\x00eA\x9a\xf0\xc6?'
p1347
tp1348
Rp1349
aa(lp1350
g20
ag21
aa(lp1351
g23
aI1621236
aa(lp1352
g25
aI23870
aa(lp1353
g27
ag9
(g13
S'$\xb3\xb8c\x1c\xcf\x93?'
p1354
tp1355
Rp1356
aatp1357
Rp1358
aa(lp1359
S'MORAN MICHAEL P'
p1360
ag0
((lp1361
(lp1362
g6
aI00
aa(lp1363
g8
ag9
(g13
S'\x00\x00\x00\x00\x00\x00\x00\x00'
p1364
tp1365
Rp1366
aa(lp1367
g20
ag21
aa(lp1368
g23
aI221141
aa(lp1369
g25
ag21
aa(lp1370
g27
ag9
(g13
S'\xf5\xcc\xff\xcbXf\\?'
p1371
tp1372
Rp1373
aatp1374
Rp1375
aa(lp1376
S'REDMOND BRIAN L'
p1377
ag0
((lp1378
(lp1379
g6
aI00
aa(lp1380
g8
ag9
(g13
S'K\x87z\xc1\x19O\xb6?'
p1381
tp1382
Rp1383
aa(lp1384
g20
ag21
aa(lp1385
g23
aI7890324
aa(lp1386
g25
aI14689
aa(lp1387
g27
ag9
(g13
S'\xfe1\x84|\x8b\xfb\xcb?'
p1388
tp1389
Rp1390
aatp1391
Rp1392
aa(lp1393
S'BAZELIDES PHILIP J'
p1394
ag0
((lp1395
(lp1396
g6
aI00
aa(lp1397
g8
ag9
(g13
S'o\x9aw\xa25\x9e\xb2?'
p1398
tp1399
Rp1400
aa(lp1401
g20
ag21
aa(lp1402
g23
aI1599641
aa(lp1403
g25
ag21
aa(lp1404
g27
ag9
(g13
S'2`D\xce)\xd8\xa7?'
p1405
tp1406
Rp1407
aatp1408
Rp1409
aa(lp1410
S'BELDEN TIMOTHY N'
p1411
ag0
((lp1412
(lp1413
g6
aI01
aa(lp1414
g8
ag9
(g13
S'\xb0\xa6\xb9\xca@\xa6\xc8?'
p1415
tp1416
Rp1417
aa(lp1418
g20
aI-2334434
aa(lp1419
g23
aI1110705
aa(lp1420
g25
aI17355
aa(lp1421
g27
ag9
(g13
S'\xa6\xb2\x9f Aj\x9c?'
p1422
tp1423
Rp1424
aatp1425
Rp1426
aa(lp1427
S'DURAN WILLIAM D'
p1428
ag0
((lp1429
(lp1430
g6
aI00
aa(lp1431
g8
ag9
(g13
S'\xad\xe0\xfe\x13\xbdD\xc8?'
p1432
tp1433
Rp1434
aa(lp1435
g20
ag21
aa(lp1436
g23
aI1640910
aa(lp1437
g25
aI25785
aa(lp1438
g27
ag9
(g13
S'\x8e\xd45\x82E\xa4\xa5?'
p1439
tp1440
Rp1441
aatp1442
Rp1443
aa(lp1444
S'THORN TERENCE H'
p1445
ag0
((lp1446
(lp1447
g6
aI00
aa(lp1448
g8
ag9
(g13
S'6_M^\xec\x94\xc9?'
p1449
tp1450
Rp1451
aa(lp1452
g20
ag21
aa(lp1453
g23
aI4817796
aa(lp1454
g25
aI46145
aa(lp1455
g27
ag9
(g13
S'B#\x80\x9b\x9d\x97\xc0?'
p1456
tp1457
Rp1458
aatp1459
Rp1460
aa(lp1461
S'FASTOW ANDREW S'
p1462
ag0
((lp1463
(lp1464
g6
aI01
aa(lp1465
g8
ag9
(g13
S'\xff\xc2\x83Y\x7fa\xd9?'
p1466
tp1467
Rp1468
aa(lp1469
g20
aI-1386055
aa(lp1470
g23
aI1794412
aa(lp1471
g25
aI55921
aa(lp1472
g27
ag9
(g13
S'\x00\x00\x00\x00\x00\x00\x00\x00'
p1473
tp1474
Rp1475
aatp1476
Rp1477
aa(lp1478
S'FOY JOE'
p1479
ag0
((lp1480
(lp1481
g6
aI00
aa(lp1482
g8
ag9
(g13
S'\x00\x00\x00\x00\x00\x00\x00\x00'
p1483
tp1484
Rp1485
aa(lp1486
g20
ag21
aa(lp1487
g23
aI343434
aa(lp1488
g25
ag21
aa(lp1489
g27
ag9
(g13
S'\xd7c4\x87\x1ez\x84?'
p1490
tp1491
Rp1492
aatp1493
Rp1494
aa(lp1495
S'CALGER CHRISTOPHER F'
p1496
ag0
((lp1497
(lp1498
g6
aI01
aa(lp1499
g8
ag9
(g13
S'\x81\xbd\xee\x88\x86\xaa\xcb?'
p1500
tp1501
Rp1502
aa(lp1503
g20
aI-262500
aa(lp1504
g23
aI126027
aa(lp1505
g25
aI35818
aa(lp1506
g27
ag9
(g13
S'\x00\x00\x00\x00\x00\x00\x00\x00'
p1507
tp1508
Rp1509
aatp1510
Rp1511
aa(lp1512
S'RICE KENNETH D'
p1513
ag0
((lp1514
(lp1515
g6
aI01
aa(lp1516
g8
ag9
(g13
S'h\x02\x8c\xd8\xb59\xd8?'
p1517
tp1518
Rp1519
aa(lp1520
g20
aI-3504386
aa(lp1521
g23
aI22542539
aa(lp1522
g25
aI46950
aa(lp1523
g27
ag9
(g13
S'\xaf\x06\xc9\xee\xdbp\xe2?'
p1524
tp1525
Rp1526
aatp1527
Rp1528
aa(lp1529
S'KAMINSKI WINCENTY J'
p1530
ag0
((lp1531
(lp1532
g6
aI00
aa(lp1533
g8
ag9
(g13
S'\xf7\x8a\tx\xfc\xaf\xcf?'
p1534
tp1535
Rp1536
aa(lp1537
g20
ag21
aa(lp1538
g23
aI976037
aa(lp1539
g25
aI83585
aa(lp1540
g27
ag9
(g13
S'e\x85\xb5\x934W\x99?'
p1541
tp1542
Rp1543
aatp1544
Rp1545
aa(lp1546
S'LOCKHART EUGENE E'
p1547
ag0
((lp1548
(lp1549
g6
aI00
aa(lp1550
g8
ag9
(g13
S'\x00\x00\x00\x00\x00\x00\x00\x00'
p1551
tp1552
Rp1553
aa(lp1554
g20
ag21
aa(lp1555
g23
ag21
aa(lp1556
g25
ag21
aa(lp1557
g27
ag9
(g13
S'\x00\x00\x00\x00\x00\x00\x00\x00'
p1558
tp1559
Rp1560
aatp1561
Rp1562
aa(lp1563
S'COX DAVID'
p1564
ag0
((lp1565
(lp1566
g6
aI00
aa(lp1567
g8
ag9
(g13
S'\n\xdc)\xa7\xc0\x19\xd2?'
p1568
tp1569
Rp1570
aa(lp1571
g20
aI-41250
aa(lp1572
g23
aI495633
aa(lp1573
g25
aI27861
aa(lp1574
g27
ag9
(g13
S'\xa2\xc0\xe8\x88\x1d\tl?'
p1575
tp1576
Rp1577
aatp1578
Rp1579
aa(lp1580
S'OVERDYKE JR JERE C'
p1581
ag0
((lp1582
(lp1583
g6
aI00
aa(lp1584
g8
ag9
(g13
S'\xf4\xa2)\x9b\x1b\xdf\xb5?'
p1585
tp1586
Rp1587
aa(lp1588
g20
ag21
aa(lp1589
g23
aI7307594
aa(lp1590
g25
aI18834
aa(lp1591
g27
ag9
(g13
S'\x8f\x12\x18\xaeB\xa0\xc3?'
p1592
tp1593
Rp1594
aatp1595
Rp1596
aa(lp1597
S'PEREIRA PAULO V. FERRAZ'
p1598
ag0
((lp1599
(lp1600
g6
aI00
aa(lp1601
g8
ag9
(g13
S'\x00\x00\x00\x00\x00\x00\x00\x00'
p1602
tp1603
Rp1604
aa(lp1605
g20
aI-101250
aa(lp1606
g23
ag21
aa(lp1607
g25
aI27942
aa(lp1608
g27
ag9
(g13
S'\x00\x00\x00\x00\x00\x00\x00\x00'
p1609
tp1610
Rp1611
aatp1612
Rp1613
aa(lp1614
S'STABLER FRANK'
p1615
ag0
((lp1616
(lp1617
g6
aI00
aa(lp1618
g8
ag9
(g13
S'\xf5\xb4M\x8bD\x96\xcb?'
p1619
tp1620
Rp1621
aa(lp1622
g20
ag21
aa(lp1623
g23
aI511734
aa(lp1624
g25
aI16514
aa(lp1625
g27
ag9
(g13
S'\x00\x00\x00\x00\x00\x00\x00\x00'
p1626
tp1627
Rp1628
aatp1629
Rp1630
aa(lp1631
S'SKILLING JEFFREY K'
p1632
ag0
((lp1633
(lp1634
g6
aI01
aa(lp1635
g8
ag9
(g13
S'\x00\x00\x00\x00\x00\x00\xf0?'
p1636
tp1637
Rp1638
aa(lp1639
g20
ag21
aa(lp1640
g23
aI26093672
aa(lp1641
g25
aI29336
aa(lp1642
g27
ag9
(g13
S'\xf2\x8a\xb4%\x13\xef\xe1?'
p1643
tp1644
Rp1645
aatp1646
Rp1647
aa(lp1648
S'BLAKE JR. NORMAN P'
p1649
ag0
((lp1650
(lp1651
g6
aI00
aa(lp1652
g8
ag9
(g13
S'\x00\x00\x00\x00\x00\x00\x00\x00'
p1653
tp1654
Rp1655
aa(lp1656
g20
aI-113784
aa(lp1657
g23
ag21
aa(lp1658
g25
aI1279
aa(lp1659
g27
ag9
(g13
S'\x00\x00\x00\x00\x00\x00\x00\x00'
p1660
tp1661
Rp1662
aatp1663
Rp1664
aa(lp1665
S'SHERRICK JEFFREY B'
p1666
ag0
((lp1667
(lp1668
g6
aI00
aa(lp1669
g8
ag9
(g13
S'\x00\x00\x00\x00\x00\x00\x00\x00'
p1670
tp1671
Rp1672
aa(lp1673
g20
ag21
aa(lp1674
g23
aI1832468
aa(lp1675
g25
ag21
aa(lp1676
g27
ag9
(g13
S'\x19\xa1\x1f\x9fXC\xa5?'
p1677
tp1678
Rp1679
aatp1680
Rp1681
aa(lp1682
S'PRENTICE JAMES'
p1683
ag0
((lp1684
(lp1685
g6
aI00
aa(lp1686
g8
ag9
(g13
S'\x00\x00\x00\x00\x00\x00\x00\x00'
p1687
tp1688
Rp1689
aa(lp1690
g20
ag21
aa(lp1691
g23
aI1095040
aa(lp1692
g25
ag21
aa(lp1693
g27
ag9
(g13
S'QPg\x1a\xa4k\x9a?'
p1694
tp1695
Rp1696
aatp1697
Rp1698
aa(lp1699
S'GRAY RODNEY'
p1700
ag0
((lp1701
(lp1702
g6
aI00
aa(lp1703
g8
ag9
(g13
S'\x0e\x1a\x0c>\xdfax?'
p1704
tp1705
Rp1706
aa(lp1707
g20
ag21
aa(lp1708
g23
ag21
aa(lp1709
g25
ag21
aa(lp1710
g27
ag9
(g13
S'\x00\x00\x00\x00\x00\x00\x00\x00'
p1711
tp1712
Rp1713
aatp1714
Rp1715
aa(lp1716
S'PICKERING MARK R'
p1717
ag0
((lp1718
(lp1719
g6
aI00
aa(lp1720
g8
ag9
(g13
S'\r\xf28\x84\xd1\xdc\xe2?'
p1721
tp1722
Rp1723
aa(lp1724
g20
ag21
aa(lp1725
g23
aI28798
aa(lp1726
g25
aI31653
aa(lp1727
g27
ag9
(g13
S'L\n\xb3\xf9\x15yK?'
p1728
tp1729
Rp1730
aatp1731
Rp1732
aa(lp1733
S'THE TRAVEL AGENCY IN THE PARK'
p1734
ag0
((lp1735
(lp1736
g6
aI00
aa(lp1737
g8
ag9
(g13
S'\x00\x00\x00\x00\x00\x00\x00\x00'
p1738
tp1739
Rp1740
aa(lp1741
g20
ag21
aa(lp1742
g23
ag21
aa(lp1743
g25
ag21
aa(lp1744
g27
ag9
(g13
S'\x00\x00\x00\x00\x00\x00\x00\x00'
p1745
tp1746
Rp1747
aatp1748
Rp1749
aa(lp1750
S'NOLES JAMES L'
p1751
ag0
((lp1752
(lp1753
g6
aI00
aa(lp1754
g8
ag9
(g13
S'\x00\x00\x00\x00\x00\x00\x00\x00'
p1755
tp1756
Rp1757
aa(lp1758
g20
ag21
aa(lp1759
g23
aI368705
aa(lp1760
g25
ag21
aa(lp1761
g27
ag9
(g13
S'\x00\x00\x00\x00\x00\x00\x00\x00'
p1762
tp1763
Rp1764
aatp1765
Rp1766
aa(lp1767
S'KEAN STEVEN J'
p1768
ag0
((lp1769
(lp1770
g6
aI00
aa(lp1771
g8
ag9
(g13
S'\x9c\x92\x94\x16kI\xd7?'
p1772
tp1773
Rp1774
aa(lp1775
g20
ag21
aa(lp1776
g23
aI6153642
aa(lp1777
g25
aI41953
aa(lp1778
g27
ag9
(g13
S'J\x14~\x00\r$\xae?'
p1779
tp1780
Rp1781
aatp1782
Rp1783
aa(lp1784
S'FOWLER PEGGY'
p1785
ag0
((lp1786
(lp1787
g6
aI00
aa(lp1788
g8
ag9
(g13
S'\x00\x00\x00\x00\x00\x00\x00\x00'
p1789
tp1790
Rp1791
aa(lp1792
g20
ag21
aa(lp1793
g23
aI1884748
aa(lp1794
g25
ag21
aa(lp1795
g27
ag9
(g13
S'\xbeb\xba\xcc\x88\xbe\xa3?'
p1796
tp1797
Rp1798
aatp1799
Rp1800
aa(lp1801
S'WASAFF GEORGE'
p1802
ag0
((lp1803
(lp1804
g6
aI00
aa(lp1805
g8
ag9
(g13
S'\x0cJ\x84\x9c\x94\xf2\xcd?'
p1806
tp1807
Rp1808
aa(lp1809
g20
aI-583325
aa(lp1810
g23
aI2056427
aa(lp1811
g25
ag21
aa(lp1812
g27
ag9
(g13
S'U5\x06\xb3\x02\xde\xa8?'
p1813
tp1814
Rp1815
aatp1816
Rp1817
aa(lp1818
S'WHITE JR THOMAS E'
p1819
ag0
((lp1820
(lp1821
g6
aI00
aa(lp1822
g8
ag9
(g13
S'\x97\xa2\r>\xbeI\xd2?'
p1823
tp1824
Rp1825
aa(lp1826
g20
ag21
aa(lp1827
g23
aI15144123
aa(lp1828
g25
aI81353
aa(lp1829
g27
ag9
(g13
S'\xfb\xbd\xb2\x1f|U\xa3?'
p1830
tp1831
Rp1832
aatp1833
Rp1834
aa(lp1835
S'CHRISTODOULOU DIOMEDES'
p1836
ag0
((lp1837
(lp1838
g6
aI00
aa(lp1839
g8
ag9
(g13
S'\x00\x00\x00\x00\x00\x00\x00\x00'
p1840
tp1841
Rp1842
aa(lp1843
g20
ag21
aa(lp1844
g23
aI6077885
aa(lp1845
g25
ag21
aa(lp1846
g27
ag9
(g13
S'\x06\x9c\x12\x9c@\x1b\xc3?'
p1847
tp1848
Rp1849
aatp1850
Rp1851
aa(lp1852
S'ALLEN PHILLIP K'
p1853
ag0
((lp1854
(lp1855
g6
aI00
aa(lp1856
g8
ag9
(g13
S';\xb2\xe6\xa7\x1bC\xc7?'
p1857
tp1858
Rp1859
aa(lp1860
g20
aI-3081055
aa(lp1861
g23
aI1729541
aa(lp1862
g25
aI13868
aa(lp1863
g27
ag9
(g13
S'\xfc6\\5\xdb\xc7\xa9?'
p1864
tp1865
Rp1866
aatp1867
Rp1868
aa(lp1869
S'SHARP VICTORIA T'
p1870
ag0
((lp1871
(lp1872
g6
aI00
aa(lp1873
g8
ag9
(g13
S";\x96\xc6\xee'\x95\xcc?"
p1874
tp1875
Rp1876
aa(lp1877
g20
ag21
aa(lp1878
g23
aI494136
aa(lp1879
g25
aI116337
aa(lp1880
g27
ag9
(g13
S'8\xcc\xd9X@\xc2\x80?'
p1881
tp1882
Rp1883
aatp1884
Rp1885
aa(lp1886
S'JAEDICKE ROBERT'
p1887
ag0
((lp1888
(lp1889
g6
aI00
aa(lp1890
g8
ag9
(g13
S'\x00\x00\x00\x00\x00\x00\x00\x00'
p1891
tp1892
Rp1893
aa(lp1894
g20
aI-25000
aa(lp1895
g23
aI431750
aa(lp1896
g25
ag21
aa(lp1897
g27
ag9
(g13
S'Cp^\xf1(\xbe\x89?'
p1898
tp1899
Rp1900
aatp1901
Rp1902
aa(lp1903
S'WINOKUR JR. HERBERT S'
p1904
ag0
((lp1905
(lp1906
g6
aI00
aa(lp1907
g8
ag9
(g13
S'\x00\x00\x00\x00\x00\x00\x00\x00'
p1908
tp1909
Rp1910
aa(lp1911
g20
aI-25000
aa(lp1912
g23
ag21
aa(lp1913
g25
aI1413
aa(lp1914
g27
ag9
(g13
S'\x00\x00\x00\x00\x00\x00\x00\x00'
p1915
tp1916
Rp1917
aatp1918
Rp1919
aa(lp1920
S'BROWN MICHAEL'
p1921
ag0
((lp1922
(lp1923
g6
aI00
aa(lp1924
g8
ag9
(g13
S'\x00\x00\x00\x00\x00\x00\x00\x00'
p1925
tp1926
Rp1927
aa(lp1928
g20
ag21
aa(lp1929
g23
ag21
aa(lp1930
g25
aI49288
aa(lp1931
g27
ag9
(g13
S'\x00\x00\x00\x00\x00\x00\x00\x00'
p1932
tp1933
Rp1934
aatp1935
Rp1936
aa(lp1937
S'BADUM JAMES P'
p1938
ag0
((lp1939
(lp1940
g6
aI00
aa(lp1941
g8
ag9
(g13
S'\x00\x00\x00\x00\x00\x00\x00\x00'
p1942
tp1943
Rp1944
aa(lp1945
g20
ag21
aa(lp1946
g23
aI257817
aa(lp1947
g25
aI3486
aa(lp1948
g27
ag9
(g13
S'!Dx"\x8d\xbe~?'
p1949
tp1950
Rp1951
aatp1952
Rp1953
aa(lp1954
S'HUGHES JAMES A'
p1955
ag0
((lp1956
(lp1957
g6
aI00
aa(lp1958
g8
ag9
(g13
S'\x00\x00\x00\x00\x00\x00\x00\x00'
p1959
tp1960
Rp1961
aa(lp1962
g20
ag21
aa(lp1963
g23
aI1118394
aa(lp1964
g25
ag21
aa(lp1965
g27
ag9
(g13
S'\xe1X\x9bf\xd6\x81\x96?'
p1966
tp1967
Rp1968
aatp1969
Rp1970
aa(lp1971
S'REYNOLDS LAWRENCE'
p1972
ag0
((lp1973
(lp1974
g6
aI00
aa(lp1975
g8
ag9
(g13
S'\x85x\xe9\xc9\x99\x99\xb1?'
p1976
tp1977
Rp1978
aa(lp1979
g20
aI-200000
aa(lp1980
g23
aI4221891
aa(lp1981
g25
aI8409
aa(lp1982
g27
ag9
(g13
S'\xd6\xba{\xb1y\x02\xbf?'
p1983
tp1984
Rp1985
aatp1986
Rp1987
aa(lp1988
S'DIMICHELE RICHARD G'
p1989
ag0
((lp1990
(lp1991
g6
aI00
aa(lp1992
g8
ag9
(g13
S'\xd9\xfe$\xb8\xe8D\xce?'
p1993
tp1994
Rp1995
aa(lp1996
g20
ag21
aa(lp1997
g23
aI8317782
aa(lp1998
g25
aI35812
aa(lp1999
g27
ag9
(g13
S'$\xa9\xa2K\xd9\x86\xce?'
p2000
tp2001
Rp2002
aatp2003
Rp2004
aa(lp2005
S'BHATNAGAR SANJAY'
p2006
ag0
((lp2007
(lp2008
g6
aI00
aa(lp2009
g8
ag9
(g13
S'\x00\x00\x00\x00\x00\x00\x00\x00'
p2010
tp2011
Rp2012
aa(lp2013
g20
ag21
aa(lp2014
g23
aS'NaN'
p2015
aa(lp2016
g25
ag21
aa(lp2017
g27
ag9
(g13
S'~\x18\x1a\x05Pi\xb3?'
p2018
tp2019
Rp2020
aatp2021
Rp2022
aa(lp2023
S'CARTER REBECCA C'
p2024
ag0
((lp2025
(lp2026
g6
aI00
aa(lp2027
g8
ag9
(g13
S'\x8d@i~\n(\xce?'
p2028
tp2029
Rp2030
aa(lp2031
g20
aI-159792
aa(lp2032
g23
ag21
aa(lp2033
g25
ag21
aa(lp2034
g27
ag9
(g13
S'\x00\x00\x00\x00\x00\x00\x00\x00'
p2035
tp2036
Rp2037
aatp2038
Rp2039
aa(lp2040
S'BUCHANAN HAROLD G'
p2041
ag0
((lp2042
(lp2043
g6
aI00
aa(lp2044
g8
ag9
(g13
S'\xbb\\\xe1$Z\x91\xcc?'
p2045
tp2046
Rp2047
aa(lp2048
g20
ag21
aa(lp2049
g23
aI1014505
aa(lp2050
g25
aI600
aa(lp2051
g27
ag9
(g13
S'\x9a\xd2\xafR\xdf\x9b\x98?'
p2052
tp2053
Rp2054
aatp2055
Rp2056
aa(lp2057
S'YEAP SOON'
p2058
ag0
((lp2059
(lp2060
g6
aI00
aa(lp2061
g8
ag9
(g13
S'\x00\x00\x00\x00\x00\x00\x00\x00'
p2062
tp2063
Rp2064
aa(lp2065
g20
ag21
aa(lp2066
g23
aI192758
aa(lp2067
g25
aI55097
aa(lp2068
g27
ag9
(g13
S'c\xbf\x08\xaes\xfcv?'
p2069
tp2070
Rp2071
aatp2072
Rp2073
aa(lp2074
S'MURRAY JULIA H'
p2075
ag0
((lp2076
(lp2077
g6
aI00
aa(lp2078
g8
ag9
(g13
S';\x85\x9cl\xf7h\xca?'
p2079
tp2080
Rp2081
aa(lp2082
g20
ag21
aa(lp2083
g23
aI597461
aa(lp2084
g25
aI57580
aa(lp2085
g27
ag9
(g13
S'\xda\xfd\xf1O\xd4\xe0\x87?'
p2086
tp2087
Rp2088
aatp2089
Rp2090
aa(lp2091
S'GARLAND C KEVIN'
p2092
ag0
((lp2093
(lp2094
g6
aI00
aa(lp2095
g8
ag9
(g13
S'\xbf+\xdd1v\xb7\xca?'
p2096
tp2097
Rp2098
aa(lp2099
g20
ag21
aa(lp2100
g23
aI896153
aa(lp2101
g25
aI48405
aa(lp2102
g27
ag9
(g13
S'\xdd,G\xc0\xc6\xf7\x92?'
p2103
tp2104
Rp2105
aatp2106
Rp2107
aa(lp2108
S'DODSON KEITH'
p2109
ag0
((lp2110
(lp2111
g6
aI00
aa(lp2112
g8
ag9
(g13
S'\x93]O;\xc8t\xc9?'
p2113
tp2114
Rp2115
aa(lp2116
g20
ag21
aa(lp2117
g23
ag21
aa(lp2118
g25
aI28164
aa(lp2119
g27
ag9
(g13
S'\x00\x00\x00\x00\x00\x00\x00\x00'
p2120
tp2121
Rp2122
aatp2123
Rp2124
aa(lp2125
S'YEAGER F SCOTT'
p2126
ag0
((lp2127
(lp2128
g6
aI01
aa(lp2129
g8
ag9
(g13
S'\xa5V>\x87\xe0>\xc2?'
p2130
tp2131
Rp2132
aa(lp2133
g20
ag21
aa(lp2134
g23
aI11884758
aa(lp2135
g25
aI53947
aa(lp2136
g27
ag9
(g13
S'\xfe\\2\x9dE\xf6\xce?'
p2137
tp2138
Rp2139
aatp2140
Rp2141
aa(lp2142
S'HIRKO JOSEPH'
p2143
ag0
((lp2144
(lp2145
g6
aI01
aa(lp2146
g8
ag9
(g13
S'\x00\x00\x00\x00\x00\x00\x00\x00'
p2147
tp2148
Rp2149
aa(lp2150
g20
ag21
aa(lp2151
g23
aI30766064
aa(lp2152
g25
aI77978
aa(lp2153
g27
ag9
(g13
S'\x01\xe0\x0bC\xa0\xa9\xec?'
p2154
tp2155
Rp2156
aatp2157
Rp2158
aa(lp2159
S'DIETRICH JANET R'
p2160
ag0
((lp2161
(lp2162
g6
aI00
aa(lp2163
g8
ag9
(g13
S'\xad\xbfR0\xc6\xce\xcc?'
p2164
tp2165
Rp2166
aa(lp2167
g20
ag21
aa(lp2168
g23
aI1865087
aa(lp2169
g25
aI3475
aa(lp2170
g27
ag9
(g13
S'\x05\xebq\xcd\xce\x1a\xa7?'
p2171
tp2172
Rp2173
aatp2174
Rp2175
aa(lp2176
S'DERRICK JR. JAMES V'
p2177
ag0
((lp2178
(lp2179
g6
aI00
aa(lp2180
g8
ag9
(g13
S'>\xaf\x11\xb5g[\xdc?'
p2181
tp2182
Rp2183
aa(lp2184
g20
aI-1284000
aa(lp2185
g23
aI8831913
aa(lp2186
g25
aI51124
aa(lp2187
g27
ag9
(g13
S'\xd0"?\xc4\xc6t\xd0?'
p2188
tp2189
Rp2190
aatp2191
Rp2192
aa(lp2193
S'FREVERT MARK A'
p2194
ag0
((lp2195
(lp2196
g6
aI00
aa(lp2197
g8
ag9
(g13
S'\xa0FGi\x01\x8d\xee?'
p2198
tp2199
Rp2200
aa(lp2201
g20
aI-3367011
aa(lp2202
g23
aI14622185
aa(lp2203
g25
aI86987
aa(lp2204
g27
ag9
(g13
S'\x87\x84Q\xd1\xbbp\xd3?'
p2205
tp2206
Rp2207
aatp2208
Rp2209
aa(lp2210
S'PAI LOU L'
p2211
ag0
((lp2212
(lp2213
g6
aI00
aa(lp2214
g8
ag9
(g13
S'\xa1o\xff\xe7\x1a*\xce?'
p2215
tp2216
Rp2217
aa(lp2218
g20
ag21
aa(lp2219
g23
aI23817930
aa(lp2220
g25
aI32047
aa(lp2221
g27
ag9
(g13
S'\x96\x07\xeb\xa4\xa0\xa0\xdc?'
p2222
tp2223
Rp2224
aatp2225
Rp2226
aa(lp2227
S'BAY FRANKLIN R'
p2228
ag0
((lp2229
(lp2230
g6
aI00
aa(lp2231
g8
ag9
(g13
S'\xee-dH@\x9b\xcb?'
p2232
tp2233
Rp2234
aa(lp2235
g20
aI-201641
aa(lp2236
g23
aI63014
aa(lp2237
g25
aI129142
aa(lp2238
g27
ag9
(g13
S'\x00\x00\x00\x00\x00\x00\x00\x00'
p2239
tp2240
Rp2241
aatp2242
Rp2243
aa(lp2244
S'HAYSLETT RODERICK J'
p2245
ag0
((lp2246
(lp2247
g6
aI00
aa(lp2248
g8
ag9
(g13
S'\x00\x00\x00\x00\x00\x00\x00\x00'
p2249
tp2250
Rp2251
aa(lp2252
g20
ag21
aa(lp2253
g23
aI346663
aa(lp2254
g25
ag21
aa(lp2255
g27
ag9
(g13
S'\x00\x00\x00\x00\x00\x00\x00\x00'
p2256
tp2257
Rp2258
aatp2259
Rp2260
aa(lp2261
S'FUGH JOHN L'
p2262
ag0
((lp2263
(lp2264
g6
aI00
aa(lp2265
g8
ag9
(g13
S'\x00\x00\x00\x00\x00\x00\x00\x00'
p2266
tp2267
Rp2268
aa(lp2269
g20
ag21
aa(lp2270
g23
aI176378
aa(lp2271
g25
ag21
aa(lp2272
g27
ag9
(g13
S'\xe3\xe5\xba\xa0h\x08u?'
p2273
tp2274
Rp2275
aatp2276
Rp2277
aa(lp2278
S'FALLON JAMES B'
p2279
ag0
((lp2280
(lp2281
g6
aI00
aa(lp2282
g8
ag9
(g13
S'\xf6\x8b\x168\xbd\x8a\xd1?'
p2283
tp2284
Rp2285
aa(lp2286
g20
ag21
aa(lp2287
g23
aI2332399
aa(lp2288
g25
aI95924
aa(lp2289
g27
ag9
(g13
S'd\x98\xf3\x83\xf6\x07\x9c?'
p2290
tp2291
Rp2292
aatp2293
Rp2294
aa(lp2295
S'KOENIG MARK E'
p2296
ag0
((lp2297
(lp2298
g6
aI01
aa(lp2299
g8
ag9
(g13
S'\xdaS\x7fQ\xbc\xd9\xd1?'
p2300
tp2301
Rp2302
aa(lp2303
g20
ag21
aa(lp2304
g23
aI1920055
aa(lp2305
g25
aI127017
aa(lp2306
g27
ag9
(g13
S'K\xfdP\x06\xa4\x06\x94?'
p2307
tp2308
Rp2309
aatp2310
Rp2311
aa(lp2312
S'SAVAGE FRANK'
p2313
ag0
((lp2314
(lp2315
g6
aI00
aa(lp2316
g8
ag9
(g13
S'\x00\x00\x00\x00\x00\x00\x00\x00'
p2317
tp2318
Rp2319
aa(lp2320
g20
aI-121284
aa(lp2321
g23
ag21
aa(lp2322
g25
ag21
aa(lp2323
g27
ag9
(g13
S'\x00\x00\x00\x00\x00\x00\x00\x00'
p2324
tp2325
Rp2326
aatp2327
Rp2328
aa(lp2329
S'IZZO LAWRENCE L'
p2330
ag0
((lp2331
(lp2332
g6
aI00
aa(lp2333
g8
ag9
(g13
S'\x93>\x87\x16\x00\xa5\xb3?'
p2334
tp2335
Rp2336
aa(lp2337
g20
ag21
aa(lp2338
g23
aI5819980
aa(lp2339
g25
aI28093
aa(lp2340
g27
ag9
(g13
S'\xack7^\x1a#\xb0?'
p2341
tp2342
Rp2343
aatp2344
Rp2345
aa(lp2346
S'TILNEY ELIZABETH A'
p2347
ag0
((lp2348
(lp2349
g6
aI00
aa(lp2350
g8
ag9
(g13
S'{\xfa\x16\x8bT}\xcc?'
p2351
tp2352
Rp2353
aa(lp2354
g20
aI-575000
aa(lp2355
g23
aI1168042
aa(lp2356
g25
ag21
aa(lp2357
g27
ag9
(g13
S'\xd1\xf4:\xe3^\xa0\x91?'
p2358
tp2359
Rp2360
aatp2361
Rp2362
aa(lp2363
S'MARTIN AMANDA K'
p2364
ag0
((lp2365
(lp2366
g6
aI00
aa(lp2367
g8
ag9
(g13
S'\xad\x89\x91\xdd\xb6 \xd4?'
p2368
tp2369
Rp2370
aa(lp2371
g20
ag21
aa(lp2372
g23
aI2070306
aa(lp2373
g25
aI8211
aa(lp2374
g27
ag9
(g13
S'\x83\x8c\x97\x883\xdc\xae?'
p2375
tp2376
Rp2377
aatp2378
Rp2379
aa(lp2380
S'BUY RICHARD B'
p2381
ag0
((lp2382
(lp2383
g6
aI00
aa(lp2384
g8
ag9
(g13
S'\x19\xac\x88ot\t\xd3?'
p2385
tp2386
Rp2387
aa(lp2388
g20
aI-694862
aa(lp2389
g23
aI3444470
aa(lp2390
g25
ag21
aa(lp2391
g27
ag9
(g13
S'\xc0,\x92W\xa2\xf3\xb2?'
p2392
tp2393
Rp2394
aatp2395
Rp2396
aa(lp2397
S'GRAMM WENDY L'
p2398
ag0
((lp2399
(lp2400
g6
aI00
aa(lp2401
g8
ag9
(g13
S'\x00\x00\x00\x00\x00\x00\x00\x00'
p2402
tp2403
Rp2404
aa(lp2405
g20
ag21
aa(lp2406
g23
ag21
aa(lp2407
g25
ag21
aa(lp2408
g27
ag9
(g13
S'\x00\x00\x00\x00\x00\x00\x00\x00'
p2409
tp2410
Rp2411
aatp2412
Rp2413
aa(lp2414
S'CAUSEY RICHARD A'
p2415
ag0
((lp2416
(lp2417
g6
aI01
aa(lp2418
g8
ag9
(g13
S'\x80=\xc9\xd3f\xe9\xd7?'
p2419
tp2420
Rp2421
aa(lp2422
g20
aI-235000
aa(lp2423
g23
aI2502063
aa(lp2424
g25
aI30674
aa(lp2425
g27
ag9
(g13
S'\x00\x00\x00\x00\x00\x00\x00\x00'
p2426
tp2427
Rp2428
aatp2429
Rp2430
aa(lp2431
S'TAYLOR MITCHELL S'
p2432
ag0
((lp2433
(lp2434
g6
aI00
aa(lp2435
g8
ag9
(g13
S'\xad{)\xfcq\x8c\xce?'
p2436
tp2437
Rp2438
aa(lp2439
g20
ag21
aa(lp2440
g23
aI3745048
aa(lp2441
g25
ag21
aa(lp2442
g27
ag9
(g13
S'\xd3\x87,5\xc2\xb5\xb7?'
p2443
tp2444
Rp2445
aatp2446
Rp2447
aa(lp2448
S'DONAHUE JR JEFFREY M'
p2449
ag0
((lp2450
(lp2451
g6
aI00
aa(lp2452
g8
ag9
(g13
S'k^\xaf\x8b\x98\x0b\xd0?'
p2453
tp2454
Rp2455
aa(lp2456
g20
aI-300000
aa(lp2457
g23
aI1080988
aa(lp2458
g25
aI96268
aa(lp2459
g27
ag9
(g13
S'\x0cF\x1c\x01p\xd5\x96?'
p2460
tp2461
Rp2462
aatp2463
Rp2464
aa(lp2465
S'GLISAN JR BEN F'
p2466
ag0
((lp2467
(lp2468
g6
aI01
aa(lp2469
g8
ag9
(g13
S'\xd3\xcf\x94SE\xac\xcf?'
p2470
tp2471
Rp2472
aa(lp2473
g20
ag21
aa(lp2474
g23
aI778546
aa(lp2475
g25
aI125978
aa(lp2476
g27
ag9
(g13
S']\x90\x8c\x89l\xf0\x86?'
p2477
tp2478
Rp2479
aatp2480
Rp2481
aatp2482
Rp2483
.